; ModuleID = '19/2127.c'
source_filename = "19/2127.c"
target datalayout = "e-m:e-p270:32:32-p271:32:32-p272:64:64-i64:64-f80:128-n8:16:32:64-S128"
target triple = "x86_64-pc-linux-gnu"

@.str = private unnamed_addr constant [3 x i8] c"%s\00", align 1
@.str.1 = private unnamed_addr constant [4 x i8] c" %s\00", align 1

; Function Attrs: noinline nounwind uwtable
define dso_local i32 @main() #0 {
  %1 = alloca i32, align 4
  %2 = alloca [100 x i8], align 16
  %3 = alloca [100 x i8], align 16
  %4 = alloca [100 x i8], align 16
  %5 = alloca [100 x [50 x i8]], align 16
  %6 = alloca i32, align 4
  %7 = alloca i32, align 4
  %8 = alloca i32, align 4
  %9 = alloca i32, align 4
  %10 = alloca i32, align 4
  %11 = alloca i32, align 4
  store i32 0, i32* %1, align 4
  store i32 0, i32* %7, align 4
  store i32 0, i32* %8, align 4
  %12 = getelementptr inbounds [100 x i8], [100 x i8]* %2, i64 0, i64 0
  %13 = call i32 (i8*, ...) bitcast (i32 (...)* @gets to i32 (i8*, ...)*)(i8* %12)
  %14 = getelementptr inbounds [100 x i8], [100 x i8]* %3, i64 0, i64 0
  %15 = call i32 (i8*, ...) @__isoc99_scanf(i8* getelementptr inbounds ([3 x i8], [3 x i8]* @.str, i64 0, i64 0), i8* %14)
  %16 = getelementptr inbounds [100 x i8], [100 x i8]* %4, i64 0, i64 0
  %17 = call i32 (i8*, ...) @__isoc99_scanf(i8* getelementptr inbounds ([3 x i8], [3 x i8]* @.str, i64 0, i64 0), i8* %16)
  %18 = getelementptr inbounds [100 x i8], [100 x i8]* %2, i64 0, i64 0
  %19 = call i64 @strlen(i8* %18) #4
  %20 = trunc i64 %19 to i32
  store i32 %20, i32* %9, align 4
  store i32 0, i32* %6, align 4
  br label %21

21:                                               ; preds = %55, %0
  %22 = load i32, i32* %6, align 4
  %23 = load i32, i32* %9, align 4
  %24 = icmp slt i32 %22, %23
  br i1 %24, label %25, label %58

25:                                               ; preds = %21
  %26 = load i32, i32* %6, align 4
  %27 = sext i32 %26 to i64
  %28 = getelementptr inbounds [100 x i8], [100 x i8]* %2, i64 0, i64 %27
  %29 = load i8, i8* %28, align 1
  %30 = sext i8 %29 to i32
  %31 = icmp ne i32 %30, 32
  br i1 %31, label %32, label %45

32:                                               ; preds = %25
  %33 = load i32, i32* %6, align 4
  %34 = sext i32 %33 to i64
  %35 = getelementptr inbounds [100 x i8], [100 x i8]* %2, i64 0, i64 %34
  %36 = load i8, i8* %35, align 1
  %37 = load i32, i32* %7, align 4
  %38 = sext i32 %37 to i64
  %39 = getelementptr inbounds [100 x [50 x i8]], [100 x [50 x i8]]* %5, i64 0, i64 %38
  %40 = load i32, i32* %8, align 4
  %41 = sext i32 %40 to i64
  %42 = getelementptr inbounds [50 x i8], [50 x i8]* %39, i64 0, i64 %41
  store i8 %36, i8* %42, align 1
  %43 = load i32, i32* %8, align 4
  %44 = add nsw i32 %43, 1
  store i32 %44, i32* %8, align 4
  br label %54

45:                                               ; preds = %25
  %46 = load i32, i32* %7, align 4
  %47 = sext i32 %46 to i64
  %48 = getelementptr inbounds [100 x [50 x i8]], [100 x [50 x i8]]* %5, i64 0, i64 %47
  %49 = load i32, i32* %8, align 4
  %50 = sext i32 %49 to i64
  %51 = getelementptr inbounds [50 x i8], [50 x i8]* %48, i64 0, i64 %50
  store i8 0, i8* %51, align 1
  %52 = load i32, i32* %7, align 4
  %53 = add nsw i32 %52, 1
  store i32 %53, i32* %7, align 4
  store i32 0, i32* %8, align 4
  br label %54

54:                                               ; preds = %45, %32
  br label %55

55:                                               ; preds = %54
  %56 = load i32, i32* %6, align 4
  %57 = add nsw i32 %56, 1
  store i32 %57, i32* %6, align 4
  br label %21

58:                                               ; preds = %21
  %59 = load i32, i32* %7, align 4
  %60 = sext i32 %59 to i64
  %61 = getelementptr inbounds [100 x [50 x i8]], [100 x [50 x i8]]* %5, i64 0, i64 %60
  %62 = load i32, i32* %8, align 4
  %63 = sext i32 %62 to i64
  %64 = getelementptr inbounds [50 x i8], [50 x i8]* %61, i64 0, i64 %63
  store i8 0, i8* %64, align 1
  store i32 0, i32* %10, align 4
  br label %65

65:                                               ; preds = %102, %58
  %66 = load i32, i32* %10, align 4
  %67 = load i32, i32* %7, align 4
  %68 = add nsw i32 %67, 1
  %69 = icmp slt i32 %66, %68
  br i1 %69, label %70, label %105

70:                                               ; preds = %65
  %71 = getelementptr inbounds [100 x i8], [100 x i8]* %3, i64 0, i64 0
  %72 = load i32, i32* %10, align 4
  %73 = sext i32 %72 to i64
  %74 = getelementptr inbounds [100 x [50 x i8]], [100 x [50 x i8]]* %5, i64 0, i64 %73
  %75 = getelementptr inbounds [50 x i8], [50 x i8]* %74, i64 0, i64 0
  %76 = call i32 @strcmp(i8* %71, i8* %75) #4
  store i32 %76, i32* %11, align 4
  %77 = load i32, i32* %11, align 4
  %78 = icmp eq i32 %77, 0
  br i1 %78, label %79, label %86

79:                                               ; preds = %70
  %80 = load i32, i32* %10, align 4
  %81 = sext i32 %80 to i64
  %82 = getelementptr inbounds [100 x [50 x i8]], [100 x [50 x i8]]* %5, i64 0, i64 %81
  %83 = getelementptr inbounds [50 x i8], [50 x i8]* %82, i64 0, i64 0
  %84 = getelementptr inbounds [100 x i8], [100 x i8]* %4, i64 0, i64 0
  %85 = call i8* @strcpy(i8* %83, i8* %84) #5
  br label %86

86:                                               ; preds = %79, %70
  %87 = load i32, i32* %10, align 4
  %88 = icmp eq i32 %87, 0
  br i1 %88, label %89, label %95

89:                                               ; preds = %86
  %90 = load i32, i32* %10, align 4
  %91 = sext i32 %90 to i64
  %92 = getelementptr inbounds [100 x [50 x i8]], [100 x [50 x i8]]* %5, i64 0, i64 %91
  %93 = getelementptr inbounds [50 x i8], [50 x i8]* %92, i64 0, i64 0
  %94 = call i32 (i8*, ...) @printf(i8* getelementptr inbounds ([3 x i8], [3 x i8]* @.str, i64 0, i64 0), i8* %93)
  br label %101

95:                                               ; preds = %86
  %96 = load i32, i32* %10, align 4
  %97 = sext i32 %96 to i64
  %98 = getelementptr inbounds [100 x [50 x i8]], [100 x [50 x i8]]* %5, i64 0, i64 %97
  %99 = getelementptr inbounds [50 x i8], [50 x i8]* %98, i64 0, i64 0
  %100 = call i32 (i8*, ...) @printf(i8* getelementptr inbounds ([4 x i8], [4 x i8]* @.str.1, i64 0, i64 0), i8* %99)
  br label %101

101:                                              ; preds = %95, %89
  br label %102

102:                                              ; preds = %101
  %103 = load i32, i32* %10, align 4
  %104 = add nsw i32 %103, 1
  store i32 %104, i32* %10, align 4
  br label %65

105:                                              ; preds = %65
  ret i32 0
}

declare dso_local i32 @gets(...) #1

declare dso_local i32 @__isoc99_scanf(i8*, ...) #1

; Function Attrs: nounwind readonly
declare dso_local i64 @strlen(i8*) #2

; Function Attrs: nounwind readonly
declare dso_local i32 @strcmp(i8*, i8*) #2

; Function Attrs: nounwind
declare dso_local i8* @strcpy(i8*, i8*) #3

declare dso_local i32 @printf(i8*, ...) #1


!llvm.module.flags = !{!0}
!llvm.ident = !{!1}

!0 = !{i32 1, !"wchar_size", i32 4}
!1 = !{!"clang version 10.0.0-4ubuntu1 "}
