; ModuleID = 'source-C-CXX/18/2127.c'
source_filename = "source-C-CXX/18/2127.c"
target datalayout = "e-m:e-p270:32:32-p271:32:32-p272:64:64-i64:64-f80:128-n8:16:32:64-S128"
target triple = "x86_64-pc-linux-gnu"

@.str = private unnamed_addr constant [3 x i8] c"%s\00", align 1
@.str.1 = private unnamed_addr constant [4 x i8] c" %s\00", align 1

; Function Attrs: nounwind sspstrong uwtable
define dso_local i32 @main() local_unnamed_addr #0 {
  %1 = alloca [100 x i8], align 16
  %2 = alloca [100 x i8], align 16
  %3 = alloca [100 x i8], align 16
  %4 = alloca [100 x [50 x i8]], align 16
  %5 = getelementptr inbounds [100 x i8], [100 x i8]* %1, i64 0, i64 0
  call void @llvm.lifetime.start.p0i8(i64 100, i8* nonnull %5) #6
  %6 = getelementptr inbounds [100 x i8], [100 x i8]* %2, i64 0, i64 0
  call void @llvm.lifetime.start.p0i8(i64 100, i8* nonnull %6) #6
  %7 = getelementptr inbounds [100 x i8], [100 x i8]* %3, i64 0, i64 0
  call void @llvm.lifetime.start.p0i8(i64 100, i8* nonnull %7) #6
  %8 = getelementptr inbounds [100 x [50 x i8]], [100 x [50 x i8]]* %4, i64 0, i64 0, i64 0
  call void @llvm.lifetime.start.p0i8(i64 5000, i8* nonnull %8) #6
  %9 = call i32 (i8*, ...) bitcast (i32 (...)* @gets to i32 (i8*, ...)*)(i8* nonnull %5) #6
  %10 = call i32 (i8*, ...) @__isoc99_scanf(i8* getelementptr inbounds ([3 x i8], [3 x i8]* @.str, i64 0, i64 0), i8* nonnull %6)
  %11 = call i32 (i8*, ...) @__isoc99_scanf(i8* getelementptr inbounds ([3 x i8], [3 x i8]* @.str, i64 0, i64 0), i8* nonnull %7)
  %12 = call i64 @strlen(i8* noundef nonnull %5) #7
  %13 = trunc i64 %12 to i32
  %14 = icmp sgt i32 %13, 0
  br i1 %14, label %17, label %15

15:                                               ; preds = %0
  %16 = getelementptr inbounds [100 x [50 x i8]], [100 x [50 x i8]]* %4, i64 0, i64 0, i64 0
  store i8 0, i8* %16, align 16, !tbaa !5
  br label %43

17:                                               ; preds = %0
  %18 = and i64 %12, 4294967295
  br label %19

19:                                               ; preds = %17, %33
  %20 = phi i64 [ 0, %17 ], [ %36, %33 ]
  %21 = phi i32 [ 0, %17 ], [ %35, %33 ]
  %22 = phi i32 [ 0, %17 ], [ %34, %33 ]
  %23 = getelementptr inbounds [100 x i8], [100 x i8]* %1, i64 0, i64 %20
  %24 = load i8, i8* %23, align 1, !tbaa !5
  %25 = icmp eq i8 %24, 32
  %26 = sext i32 %21 to i64
  %27 = sext i32 %22 to i64
  %28 = getelementptr inbounds [100 x [50 x i8]], [100 x [50 x i8]]* %4, i64 0, i64 %26, i64 %27
  br i1 %25, label %31, label %29

29:                                               ; preds = %19
  store i8 %24, i8* %28, align 1, !tbaa !5
  %30 = add nsw i32 %22, 1
  br label %33

31:                                               ; preds = %19
  store i8 0, i8* %28, align 1, !tbaa !5
  %32 = add nsw i32 %21, 1
  br label %33

33:                                               ; preds = %29, %31
  %34 = phi i32 [ %30, %29 ], [ 0, %31 ]
  %35 = phi i32 [ %21, %29 ], [ %32, %31 ]
  %36 = add nuw nsw i64 %20, 1
  %37 = icmp eq i64 %36, %18
  br i1 %37, label %38, label %19, !llvm.loop !8

38:                                               ; preds = %33
  %39 = sext i32 %35 to i64
  %40 = sext i32 %34 to i64
  %41 = getelementptr inbounds [100 x [50 x i8]], [100 x [50 x i8]]* %4, i64 0, i64 %39, i64 %40
  store i8 0, i8* %41, align 1, !tbaa !5
  %42 = icmp slt i32 %35, 0
  br i1 %42, label %65, label %43

43:                                               ; preds = %15, %38
  %44 = phi i32 [ 0, %15 ], [ %35, %38 ]
  %45 = add nuw i32 %44, 1
  %46 = zext i32 %45 to i64
  %47 = call i32 @strcmp(i8* noundef nonnull %6, i8* noundef nonnull %8) #7
  %48 = icmp eq i32 %47, 0
  br i1 %48, label %49, label %51

49:                                               ; preds = %43
  %50 = call i8* @strcpy(i8* noundef nonnull %8, i8* noundef nonnull %7) #6
  br label %51

51:                                               ; preds = %49, %43
  %52 = call i32 (i8*, ...) @printf(i8* nonnull dereferenceable(1) getelementptr inbounds ([3 x i8], [3 x i8]* @.str, i64 0, i64 0), i8* nonnull %8)
  %53 = icmp eq i32 %44, 0
  br i1 %53, label %65, label %54

54:                                               ; preds = %51, %61
  %55 = phi i64 [ %63, %61 ], [ 1, %51 ]
  %56 = getelementptr inbounds [100 x [50 x i8]], [100 x [50 x i8]]* %4, i64 0, i64 %55, i64 0
  %57 = call i32 @strcmp(i8* noundef nonnull %6, i8* noundef nonnull %56) #7
  %58 = icmp eq i32 %57, 0
  br i1 %58, label %59, label %61

59:                                               ; preds = %54
  %60 = call i8* @strcpy(i8* noundef nonnull %56, i8* noundef nonnull %7) #6
  br label %61

61:                                               ; preds = %59, %54
  %62 = call i32 (i8*, ...) @printf(i8* nonnull dereferenceable(1) getelementptr inbounds ([4 x i8], [4 x i8]* @.str.1, i64 0, i64 0), i8* nonnull %56)
  %63 = add nuw nsw i64 %55, 1
  %64 = icmp eq i64 %63, %46
  br i1 %64, label %65, label %54, !llvm.loop !10

65:                                               ; preds = %61, %51, %38
  call void @llvm.lifetime.end.p0i8(i64 5000, i8* nonnull %8) #6
  call void @llvm.lifetime.end.p0i8(i64 100, i8* nonnull %7) #6
  call void @llvm.lifetime.end.p0i8(i64 100, i8* nonnull %6) #6
  call void @llvm.lifetime.end.p0i8(i64 100, i8* nonnull %5) #6
  ret i32 0
}

; Function Attrs: argmemonly mustprogress nofree nosync nounwind willreturn
declare void @llvm.lifetime.start.p0i8(i64 immarg, i8* nocapture) #1

declare i32 @gets(...) local_unnamed_addr #2

; Function Attrs: nofree nounwind
declare noundef i32 @__isoc99_scanf(i8* nocapture noundef readonly, ...) local_unnamed_addr #3

; Function Attrs: argmemonly mustprogress nofree nounwind readonly willreturn
declare i64 @strlen(i8* nocapture) local_unnamed_addr #4

; Function Attrs: argmemonly mustprogress nofree nounwind readonly willreturn
declare i32 @strcmp(i8* nocapture, i8* nocapture) local_unnamed_addr #4

; Function Attrs: argmemonly mustprogress nofree nounwind willreturn
declare i8* @strcpy(i8* noalias returned writeonly, i8* noalias nocapture readonly) local_unnamed_addr #5

; Function Attrs: nofree nounwind
declare noundef i32 @printf(i8* nocapture noundef readonly, ...) local_unnamed_addr #3

; Function Attrs: argmemonly mustprogress nofree nosync nounwind willreturn
declare void @llvm.lifetime.end.p0i8(i64 immarg, i8* nocapture) #1


!llvm.module.flags = !{!0, !1, !2, !3}
!llvm.ident = !{!4}

!0 = !{i32 1, !"wchar_size", i32 4}
!1 = !{i32 7, !"PIC Level", i32 2}
!2 = !{i32 7, !"PIE Level", i32 2}
!3 = !{i32 7, !"uwtable", i32 1}
!4 = !{!"clang version 13.0.0"}
!5 = !{!6, !6, i64 0}
!6 = !{!"omnipotent char", !7, i64 0}
!7 = !{!"Simple C/C++ TBAA"}
!8 = distinct !{!8, !9}
!9 = !{!"llvm.loop.mustprogress"}
!10 = distinct !{!10, !9, !11}
!11 = !{!"llvm.loop.peeled.count", i32 1}
